target datalayout = "e-m:e-p270:32:32-p271:32:32-p272:64:64-i64:64-i128:128-f80:128-n8:16:32:64-S128"
target triple = "x86_64-unknown-linux-gnu"

%"class.OpenColorIO_v2_4dev::RangeOpData" = type <{ %"class.OpenColorIO_v2_4dev::OpData", double, double, double, double, double, double, i32, i32, i32, [4 x i8] }>
%"class.OpenColorIO_v2_4dev::OpData" = type { ptr, %"class.std::mutex", %"class.OpenColorIO_v2_4dev::FormatMetadataImpl" }
%"class.std::mutex" = type { %"class.std::__mutex_base" }
%"class.std::__mutex_base" = type { %union.pthread_mutex_t }
%union.pthread_mutex_t = type { %struct.__pthread_mutex_s }
%struct.__pthread_mutex_s = type { i32, i32, i32, i32, i32, i16, i16, %struct.__pthread_internal_list }
%struct.__pthread_internal_list = type { ptr, ptr }
%"class.OpenColorIO_v2_4dev::FormatMetadataImpl" = type { %"class.OpenColorIO_v2_4dev::FormatMetadata", %"class.std::__cxx11::basic_string", %"class.std::__cxx11::basic_string", %"class.std::vector", %"class.std::vector.3" }
%"class.OpenColorIO_v2_4dev::FormatMetadata" = type { ptr }
%"class.std::__cxx11::basic_string" = type { %"struct.std::__cxx11::basic_string<char>::_Alloc_hider", i64, %union.anon }
%"struct.std::__cxx11::basic_string<char>::_Alloc_hider" = type { ptr }
%union.anon = type { i64, [8 x i8] }
%"class.std::vector" = type { %"struct.std::_Vector_base" }
%"struct.std::_Vector_base" = type { %"struct.std::_Vector_base<std::pair<std::__cxx11::basic_string<char>, std::__cxx11::basic_string<char>>, std::allocator<std::pair<std::__cxx11::basic_string<char>, std::__cxx11::basic_string<char>>>>::_Vector_impl" }
%"struct.std::_Vector_base<std::pair<std::__cxx11::basic_string<char>, std::__cxx11::basic_string<char>>, std::allocator<std::pair<std::__cxx11::basic_string<char>, std::__cxx11::basic_string<char>>>>::_Vector_impl" = type { %"struct.std::_Vector_base<std::pair<std::__cxx11::basic_string<char>, std::__cxx11::basic_string<char>>, std::allocator<std::pair<std::__cxx11::basic_string<char>, std::__cxx11::basic_string<char>>>>::_Vector_impl_data" }
%"struct.std::_Vector_base<std::pair<std::__cxx11::basic_string<char>, std::__cxx11::basic_string<char>>, std::allocator<std::pair<std::__cxx11::basic_string<char>, std::__cxx11::basic_string<char>>>>::_Vector_impl_data" = type { ptr, ptr, ptr }
%"class.std::vector.3" = type { %"struct.std::_Vector_base.4" }
%"struct.std::_Vector_base.4" = type { %"struct.std::_Vector_base<OpenColorIO_v2_4dev::FormatMetadataImpl, std::allocator<OpenColorIO_v2_4dev::FormatMetadataImpl>>::_Vector_impl" }
%"struct.std::_Vector_base<OpenColorIO_v2_4dev::FormatMetadataImpl, std::allocator<OpenColorIO_v2_4dev::FormatMetadataImpl>>::_Vector_impl" = type { %"struct.std::_Vector_base<OpenColorIO_v2_4dev::FormatMetadataImpl, std::allocator<OpenColorIO_v2_4dev::FormatMetadataImpl>>::_Vector_impl_data" }
%"struct.std::_Vector_base<OpenColorIO_v2_4dev::FormatMetadataImpl, std::allocator<OpenColorIO_v2_4dev::FormatMetadataImpl>>::_Vector_impl_data" = type { ptr, ptr, ptr }

@.str = private unnamed_addr constant [63 x i8] c"CTF/CLF parsing error. Only two entry IndexMaps are supported.\00", align 1
@_ZTIN19OpenColorIO_v2_4dev9ExceptionE = external constant ptr
@_ZTVN19OpenColorIO_v2_4dev6OpDataE = external unnamed_addr constant { [13 x ptr] }, align 8

; Function Attrs: mustprogress nounwind uwtable
define linkonce_odr hidden noundef double @_ZNSt14numeric_limitsIdE9quiet_NaNEv() #5 comdat align 2 {
entry:
  ret double 0x7FF8000000000000
}

; Function Attrs: mustprogress nounwind uwtable
define linkonce_odr hidden void @_ZN19OpenColorIO_v2_4dev6OpDataD2Ev(ptr noundef nonnull align 8 dereferenceable(168) %this) unnamed_addr #5 comdat align 2 {
entry:
  %this.addr = alloca ptr, align 8
  store ptr %this, ptr %this.addr, align 8
  %this1 = load ptr, ptr %this.addr, align 8
  store ptr getelementptr inbounds ({ [13 x ptr] }, ptr @_ZTVN19OpenColorIO_v2_4dev6OpDataE, i32 0, i32 0, i32 2), ptr %this1, align 8
  %m_metadata = getelementptr inbounds %"class.OpenColorIO_v2_4dev::OpData", ptr %this1, i32 0, i32 2
  call void @_ZN19OpenColorIO_v2_4dev18FormatMetadataImplD1Ev(ptr noundef nonnull align 8 dereferenceable(120) %m_metadata) #3
  ret void
}

; Function Attrs: mustprogress nounwind uwtable
define hidden noundef double @_ZN19OpenColorIO_v2_4dev11RangeOpData10EmptyValueEv() #5 align 2 {
entry:
  %call = call noundef double @_ZNSt14numeric_limitsIdE9quiet_NaNEv() #3
  ret double %call
}

; Function Attrs: mustprogress uwtable
define hidden void @_ZN19OpenColorIO_v2_4dev11RangeOpDataC2ERKNS_12IndexMappingEjNS_8BitDepthE(ptr noundef nonnull align 8 dereferenceable(228) %this, ptr noundef nonnull align 8 dereferenceable(88) %pIM, i32 noundef %len, i32 noundef %bitdepth) unnamed_addr #4 align 2 personality ptr @__gxx_personality_v0 {
entry:
  %this.addr = alloca ptr, align 8
  %pIM.addr = alloca ptr, align 8
  %len.addr = alloca i32, align 4
  %bitdepth.addr = alloca i32, align 4
  %exn.slot = alloca ptr, align 8
  %ehselector.slot = alloca i32, align 4
  %scaleIn = alloca double, align 8
  %first = alloca float, align 4
  %second = alloca float, align 4
  store ptr %this, ptr %this.addr, align 8
  store ptr %pIM, ptr %pIM.addr, align 8
  store i32 %len, ptr %len.addr, align 4
  store i32 %bitdepth, ptr %bitdepth.addr, align 4
  %this1 = load ptr, ptr %this.addr, align 8
  call void @_ZN19OpenColorIO_v2_4dev6OpDataC2Ev(ptr noundef nonnull align 8 dereferenceable(168) %this1)
  store ptr getelementptr inbounds ({ [13 x ptr] }, ptr @_ZTVN19OpenColorIO_v2_4dev11RangeOpDataE, i32 0, i32 0, i32 2), ptr %this1, align 8
  %m_minInValue = getelementptr inbounds %"class.OpenColorIO_v2_4dev::RangeOpData", ptr %this1, i32 0, i32 1
  %call = invoke noundef double @_ZN19OpenColorIO_v2_4dev11RangeOpData10EmptyValueEv()
          to label %invoke.cont unwind label %lpad

invoke.cont:                                      ; preds = %entry
  store double %call, ptr %m_minInValue, align 8
  %m_maxInValue = getelementptr inbounds %"class.OpenColorIO_v2_4dev::RangeOpData", ptr %this1, i32 0, i32 2
  %call3 = invoke noundef double @_ZN19OpenColorIO_v2_4dev11RangeOpData10EmptyValueEv()
          to label %invoke.cont2 unwind label %lpad

invoke.cont2:                                     ; preds = %invoke.cont
  store double %call3, ptr %m_maxInValue, align 8
  %m_minOutValue = getelementptr inbounds %"class.OpenColorIO_v2_4dev::RangeOpData", ptr %this1, i32 0, i32 3
  %call5 = invoke noundef double @_ZN19OpenColorIO_v2_4dev11RangeOpData10EmptyValueEv()
          to label %invoke.cont4 unwind label %lpad

invoke.cont4:                                     ; preds = %invoke.cont2
  store double %call5, ptr %m_minOutValue, align 8
  %m_maxOutValue = getelementptr inbounds %"class.OpenColorIO_v2_4dev::RangeOpData", ptr %this1, i32 0, i32 4
  %call7 = invoke noundef double @_ZN19OpenColorIO_v2_4dev11RangeOpData10EmptyValueEv()
          to label %invoke.cont6 unwind label %lpad

invoke.cont6:                                     ; preds = %invoke.cont4
  store double %call7, ptr %m_maxOutValue, align 8
  %m_scale = getelementptr inbounds %"class.OpenColorIO_v2_4dev::RangeOpData", ptr %this1, i32 0, i32 5
  store double 0.000000e+00, ptr %m_scale, align 8
  %m_offset = getelementptr inbounds %"class.OpenColorIO_v2_4dev::RangeOpData", ptr %this1, i32 0, i32 6
  store double 0.000000e+00, ptr %m_offset, align 8
  %m_fileInBitDepth = getelementptr inbounds %"class.OpenColorIO_v2_4dev::RangeOpData", ptr %this1, i32 0, i32 7
  %0 = load i32, ptr %bitdepth.addr, align 4
  store i32 %0, ptr %m_fileInBitDepth, align 8
  %m_fileOutBitDepth = getelementptr inbounds %"class.OpenColorIO_v2_4dev::RangeOpData", ptr %this1, i32 0, i32 8
  %1 = load i32, ptr %bitdepth.addr, align 4
  store i32 %1, ptr %m_fileOutBitDepth, align 4
  %m_direction = getelementptr inbounds %"class.OpenColorIO_v2_4dev::RangeOpData", ptr %this1, i32 0, i32 9
  store i32 0, ptr %m_direction, align 8
  %2 = load ptr, ptr %pIM.addr, align 8
  %call9 = invoke noundef i64 @_ZNK19OpenColorIO_v2_4dev12IndexMapping12getDimensionEv(ptr noundef nonnull align 8 dereferenceable(88) %2)
          to label %invoke.cont8 unwind label %lpad

invoke.cont8:                                     ; preds = %invoke.cont6
  %cmp = icmp ne i64 %call9, 2
  br i1 %cmp, label %if.then, label %if.end

if.then:                                          ; preds = %invoke.cont8
  %exception = call ptr @__cxa_allocate_exception(i64 16) #3
  invoke void @_ZN19OpenColorIO_v2_4dev9ExceptionC1EPKc(ptr noundef nonnull align 8 dereferenceable(16) %exception, ptr noundef @.str)
          to label %invoke.cont11 unwind label %lpad10

invoke.cont11:                                    ; preds = %if.then
  invoke void @__cxa_throw(ptr %exception, ptr @_ZTIN19OpenColorIO_v2_4dev9ExceptionE, ptr @_ZN19OpenColorIO_v2_4dev9ExceptionD1Ev) #13
          to label %unreachable unwind label %lpad

lpad:                                             ; preds = %invoke.cont20, %invoke.cont14, %invoke.cont12, %if.end, %invoke.cont11, %invoke.cont6, %invoke.cont4, %invoke.cont2, %invoke.cont, %entry
  %3 = landingpad { ptr, i32 }
          cleanup
  %4 = extractvalue { ptr, i32 } %3, 0
  store ptr %4, ptr %exn.slot, align 8
  %5 = extractvalue { ptr, i32 } %3, 1
  store i32 %5, ptr %ehselector.slot, align 4
  br label %ehcleanup

lpad10:                                           ; preds = %if.then
  %6 = landingpad { ptr, i32 }
          cleanup
  %7 = extractvalue { ptr, i32 } %6, 0
  store ptr %7, ptr %exn.slot, align 8
  %8 = extractvalue { ptr, i32 } %6, 1
  store i32 %8, ptr %ehselector.slot, align 4
  call void @__cxa_free_exception(ptr %exception) #3
  br label %ehcleanup

if.end:                                           ; preds = %invoke.cont8
  %9 = load i32, ptr %bitdepth.addr, align 4
  %call13 = invoke noundef double @_ZN19OpenColorIO_v2_4dev19GetBitDepthMaxValueENS_8BitDepthE(i32 noundef %9)
          to label %invoke.cont12 unwind label %lpad

invoke.cont12:                                    ; preds = %if.end
  %div = fdiv double 1.000000e+00, %call13
  store double %div, ptr %scaleIn, align 8
  %10 = load ptr, ptr %pIM.addr, align 8
  invoke void @_ZNK19OpenColorIO_v2_4dev12IndexMapping7getPairEmRfS1_(ptr noundef nonnull align 8 dereferenceable(88) %10, i64 noundef 0, ptr noundef nonnull align 4 dereferenceable(4) %first, ptr noundef nonnull align 4 dereferenceable(4) %second)
          to label %invoke.cont14 unwind label %lpad

invoke.cont14:                                    ; preds = %invoke.cont12
  %11 = load float, ptr %first, align 4
  %conv = fpext float %11 to double
  %12 = load double, ptr %scaleIn, align 8
  %mul = fmul double %conv, %12
  %m_minInValue15 = getelementptr inbounds %"class.OpenColorIO_v2_4dev::RangeOpData", ptr %this1, i32 0, i32 1
  store double %mul, ptr %m_minInValue15, align 8
  %13 = load float, ptr %second, align 4
  %conv16 = fpext float %13 to double
  %14 = load i32, ptr %len.addr, align 4
  %sub = sub i32 %14, 1
  %conv17 = uitofp i32 %sub to double
  %div18 = fdiv double %conv16, %conv17
  %m_minOutValue19 = getelementptr inbounds %"class.OpenColorIO_v2_4dev::RangeOpData", ptr %this1, i32 0, i32 3
  store double %div18, ptr %m_minOutValue19, align 8
  %15 = load ptr, ptr %pIM.addr, align 8
  invoke void @_ZNK19OpenColorIO_v2_4dev12IndexMapping7getPairEmRfS1_(ptr noundef nonnull align 8 dereferenceable(88) %15, i64 noundef 1, ptr noundef nonnull align 4 dereferenceable(4) %first, ptr noundef nonnull align 4 dereferenceable(4) %second)
          to label %invoke.cont20 unwind label %lpad

invoke.cont20:                                    ; preds = %invoke.cont14
  %16 = load float, ptr %first, align 4
  %conv21 = fpext float %16 to double
  %17 = load double, ptr %scaleIn, align 8
  %mul22 = fmul double %conv21, %17
  %m_maxInValue23 = getelementptr inbounds %"class.OpenColorIO_v2_4dev::RangeOpData", ptr %this1, i32 0, i32 2
  store double %mul22, ptr %m_maxInValue23, align 8
  %18 = load float, ptr %second, align 4
  %conv24 = fpext float %18 to double
  %19 = load i32, ptr %len.addr, align 4
  %sub25 = sub i32 %19, 1
  %conv26 = uitofp i32 %sub25 to double
  %div27 = fdiv double %conv24, %conv26
  %m_maxOutValue28 = getelementptr inbounds %"class.OpenColorIO_v2_4dev::RangeOpData", ptr %this1, i32 0, i32 4
  store double %div27, ptr %m_maxOutValue28, align 8
  %vtable = load ptr, ptr %this1, align 8
  %vfn = getelementptr inbounds ptr, ptr %vtable, i64 2
  %20 = load ptr, ptr %vfn, align 8
  invoke void %20(ptr noundef nonnull align 8 dereferenceable(228) %this1)
          to label %invoke.cont29 unwind label %lpad

invoke.cont29:                                    ; preds = %invoke.cont20
  ret void

ehcleanup:                                        ; preds = %lpad10, %lpad
  call void @_ZN19OpenColorIO_v2_4dev6OpDataD2Ev(ptr noundef nonnull align 8 dereferenceable(168) %this1) #3
  br label %eh.resume

eh.resume:                                        ; preds = %ehcleanup
  %exn = load ptr, ptr %exn.slot, align 8
  %sel = load i32, ptr %ehselector.slot, align 4
  %lpad.val = insertvalue { ptr, i32 } poison, ptr %exn, 0
  %lpad.val30 = insertvalue { ptr, i32 } %lpad.val, i32 %sel, 1
  resume { ptr, i32 } %lpad.val30

unreachable:                                      ; preds = %invoke.cont11
  unreachable
}