; Function Attrs: mustprogress uwtable
define hidden void @_ZN19OpenColorIO_v2_4dev11RangeOpDataC2ERKNS_12IndexMappingEjNS_8BitDepthE(ptr noundef nonnull align 8 dereferenceable(228) %this, ptr noundef nonnull align 8 dereferenceable(88) %pIM, i32 noundef %len, i32 noundef %bitdepth) unnamed_addr #3 align 2 personality ptr @__gxx_personality_v0 {
entry:
  %first = alloca float, align 4
  %second = alloca float, align 4
  tail call void @_ZN19OpenColorIO_v2_4dev6OpDataC2Ev(ptr noundef nonnull align 8 dereferenceable(168) %this)
  store ptr getelementptr inbounds ({ [13 x ptr] }, ptr @_ZTVN19OpenColorIO_v2_4dev11RangeOpDataE, i64 0, i32 0, i64 2), ptr %this, align 8
  %m_minInValue = getelementptr inbounds i8, ptr %this, i64 168
  %m_maxInValue = getelementptr inbounds i8, ptr %this, i64 176
  store <2 x double> <double 0x7FF8000000000000, double 0x7FF8000000000000>, ptr %m_minInValue, align 8
  %m_minOutValue = getelementptr inbounds i8, ptr %this, i64 184
  %m_maxOutValue = getelementptr inbounds i8, ptr %this, i64 192
  store <2 x double> <double 0x7FF8000000000000, double 0x7FF8000000000000>, ptr %m_minOutValue, align 8
  %m_scale = getelementptr inbounds i8, ptr %this, i64 200
  %m_fileInBitDepth = getelementptr inbounds i8, ptr %this, i64 216
  tail call void @llvm.memset.p0.i64(ptr noundef nonnull align 8 dereferenceable(16) %m_scale, i8 0, i64 16, i1 false)
  store i32 %bitdepth, ptr %m_fileInBitDepth, align 8
  %m_fileOutBitDepth = getelementptr inbounds i8, ptr %this, i64 220
  store i32 %bitdepth, ptr %m_fileOutBitDepth, align 4
  %m_direction = getelementptr inbounds i8, ptr %this, i64 224
  store i32 0, ptr %m_direction, align 8
  %call9 = invoke noundef i64 @_ZNK19OpenColorIO_v2_4dev12IndexMapping12getDimensionEv(ptr noundef nonnull align 8 dereferenceable(88) %pIM)
          to label %invoke.cont8 unwind label %lpad

invoke.cont8:                                     ; preds = %entry
  %cmp.not = icmp eq i64 %call9, 2
  br i1 %cmp.not, label %if.end, label %if.then

if.then:                                          ; preds = %invoke.cont8
  %exception = tail call ptr @__cxa_allocate_exception(i64 16) #17
  invoke void @_ZN19OpenColorIO_v2_4dev9ExceptionC1EPKc(ptr noundef nonnull align 8 dereferenceable(16) %exception, ptr noundef nonnull @.str)
          to label %invoke.cont11 unwind label %lpad10

invoke.cont11:                                    ; preds = %if.then
  invoke void @__cxa_throw(ptr nonnull %exception, ptr nonnull @_ZTIN19OpenColorIO_v2_4dev9ExceptionE, ptr nonnull @_ZN19OpenColorIO_v2_4dev9ExceptionD1Ev) #18
          to label %unreachable unwind label %lpad

lpad:                                             ; preds = %invoke.cont20, %invoke.cont14, %invoke.cont12, %if.end, %invoke.cont11, %entry
  %0 = landingpad { ptr, i32 }
          cleanup
  br label %ehcleanup

lpad10:                                           ; preds = %if.then
  %1 = landingpad { ptr, i32 }
          cleanup
  tail call void @__cxa_free_exception(ptr %exception) #17
  br label %ehcleanup

if.end:                                           ; preds = %invoke.cont8
  %call13 = invoke noundef double @_ZN19OpenColorIO_v2_4dev19GetBitDepthMaxValueENS_8BitDepthE(i32 noundef %bitdepth)
          to label %invoke.cont12 unwind label %lpad

invoke.cont12:                                    ; preds = %if.end
  %div = fdiv double 1.000000e+00, %call13
  invoke void @_ZNK19OpenColorIO_v2_4dev12IndexMapping7getPairEmRfS1_(ptr noundef nonnull align 8 dereferenceable(88) %pIM, i64 noundef 0, ptr noundef nonnull align 4 dereferenceable(4) %first, ptr noundef nonnull align 4 dereferenceable(4) %second)
          to label %invoke.cont14 unwind label %lpad

invoke.cont14:                                    ; preds = %invoke.cont12
  %2 = load float, ptr %first, align 4
  %conv = fpext float %2 to double
  %mul = fmul double %div, %conv
  store double %mul, ptr %m_minInValue, align 8
  %3 = load float, ptr %second, align 4
  %conv16 = fpext float %3 to double
  %sub = add i32 %len, -1
  %conv17 = uitofp i32 %sub to double
  %div18 = fdiv double %conv16, %conv17
  store double %div18, ptr %m_minOutValue, align 8
  invoke void @_ZNK19OpenColorIO_v2_4dev12IndexMapping7getPairEmRfS1_(ptr noundef nonnull align 8 dereferenceable(88) %pIM, i64 noundef 1, ptr noundef nonnull align 4 dereferenceable(4) %first, ptr noundef nonnull align 4 dereferenceable(4) %second)
          to label %invoke.cont20 unwind label %lpad

invoke.cont20:                                    ; preds = %invoke.cont14
  %4 = load float, ptr %first, align 4
  %conv21 = fpext float %4 to double
  %mul22 = fmul double %div, %conv21
  store double %mul22, ptr %m_maxInValue, align 8
  %5 = load float, ptr %second, align 4
  %conv24 = fpext float %5 to double
  %div27 = fdiv double %conv24, %conv17
  store double %div27, ptr %m_maxOutValue, align 8
  %vtable = load ptr, ptr %this, align 8
  %vfn = getelementptr inbounds i8, ptr %vtable, i64 16
  %6 = load ptr, ptr %vfn, align 8
  invoke void %6(ptr noundef nonnull align 8 dereferenceable(228) %this)
          to label %invoke.cont29 unwind label %lpad

invoke.cont29:                                    ; preds = %invoke.cont20
  ret void

ehcleanup:                                        ; preds = %lpad10, %lpad
  %.pn = phi { ptr, i32 } [ %0, %lpad ], [ %1, %lpad10 ]
  store ptr getelementptr inbounds ({ [13 x ptr] }, ptr @_ZTVN19OpenColorIO_v2_4dev6OpDataE, i64 0, i32 0, i64 2), ptr %this, align 8
  %m_metadata.i = getelementptr inbounds i8, ptr %this, i64 48
  call void @_ZN19OpenColorIO_v2_4dev18FormatMetadataImplD1Ev(ptr noundef nonnull align 8 dereferenceable(120) %m_metadata.i) #17
  resume { ptr, i32 } %.pn

unreachable:                                      ; preds = %invoke.cont11
  unreachable
}